; Function Attrs: mustprogress uwtable
define hidden noundef ptr @_Z17mk_enum2bv_solverR11ast_managerRK10params_refP6solver(ptr noundef nonnull align 8 dereferenceable(976) %0, ptr noundef nonnull align 8 dereferenceable(8) %1, ptr noundef %2) local_unnamed_addr #3 personality ptr @__gxx_personality_v0 {
  %4 = tail call noalias noundef ptr @_ZN6memory8allocateEm(i64 noundef 144)
  tail call void @_ZN12solver_na2asC2ER11ast_manager(ptr noundef nonnull align 8 dereferenceable(144) %4, ptr noundef nonnull align 8 dereferenceable(976) %0)
  store ptr getelementptr inbounds nuw inrange(-16, 416) (i8, ptr @_ZTV14enum2bv_solver, i64 16), ptr %4, align 8, !tbaa !3
  %5 = getelementptr inbounds nuw i8, ptr %4, i64 72
  store ptr getelementptr inbounds nuw inrange(-16, 104) (i8, ptr @_ZTV14enum2bv_solver, i64 448), ptr %5, align 8, !tbaa !3
  %6 = getelementptr inbounds nuw i8, ptr %4, i64 120
  store ptr %0, ptr %6, align 8, !tbaa !6
  %7 = getelementptr inbounds nuw i8, ptr %4, i64 128
  store ptr %2, ptr %7, align 8, !tbaa !10
  %.not.i.i.i = icmp eq ptr %2, null
  br i1 %.not.i.i.i, label %_ZN3refI6solverEC2EPS0_.exit.i, label %8

8:                                                ; preds = %3
  %9 = getelementptr inbounds nuw i8, ptr %2, i64 48
  %10 = load i32, ptr %9, align 8, !tbaa !13
  %11 = add i32 %10, 1
  store i32 %11, ptr %9, align 8, !tbaa !13
  br label %_ZN3refI6solverEC2EPS0_.exit.i

_ZN3refI6solverEC2EPS0_.exit.i:                   ; preds = %8, %3
  %12 = getelementptr inbounds nuw i8, ptr %4, i64 136
  invoke void @_ZN16enum2bv_rewriterC1ER11ast_managerRK10params_ref(ptr noundef nonnull align 8 dereferenceable(8) %12, ptr noundef nonnull align 8 dereferenceable(976) %0, ptr noundef nonnull align 8 dereferenceable(8) %1)
          to label %13 unwind label %14

13:                                               ; preds = %_ZN3refI6solverEC2EPS0_.exit.i
  invoke void @_ZN6solver11updt_paramsERK10params_ref(ptr noundef nonnull align 8 dereferenceable(144) %4, ptr noundef nonnull align 8 dereferenceable(8) %1)
          to label %_ZN14enum2bv_solverC2ER11ast_managerRK10params_refP6solver.exit unwind label %16

14:                                               ; preds = %_ZN3refI6solverEC2EPS0_.exit.i
  %15 = landingpad { ptr, i32 }
          cleanup
  br label %18

16:                                               ; preds = %13
  %17 = landingpad { ptr, i32 }
          cleanup
  tail call void @_ZN16enum2bv_rewriterD1Ev(ptr noundef nonnull align 8 dereferenceable(8) %12) #20
  br label %18

18:                                               ; preds = %16, %14
  %.pn.i = phi { ptr, i32 } [ %17, %16 ], [ %15, %14 ]
  tail call void @_ZN3refI6solverED2Ev(ptr noundef nonnull align 8 dereferenceable(8) %7) #20
  tail call void @_ZN12solver_na2asD2Ev(ptr noundef nonnull align 8 dereferenceable(144) %4) #20
  resume { ptr, i32 } %.pn.i

_ZN14enum2bv_solverC2ER11ast_managerRK10params_refP6solver.exit: ; preds = %13
  ret ptr %4
}